target datalayout = "e-m:e-p270:32:32-p271:32:32-p272:64:64-i64:64-i128:128-f80:128-n8:16:32:64-S128"
target triple = "x86_64-pc-linux-gnu"

; Function Attrs: nounwind uwtable
define dso_local i32 @mda_next_tuple(i32 noundef %0, ptr noundef %1, ptr noundef %2) #0 {
  %4 = alloca i32, align 4
  %5 = alloca i32, align 4
  %6 = alloca ptr, align 8
  %7 = alloca ptr, align 8
  %8 = alloca i32, align 4
  %9 = alloca i32, align 4
  store i32 %0, ptr %5, align 4
  store ptr %1, ptr %6, align 8
  store ptr %2, ptr %7, align 8
  call void @llvm.lifetime.start.p0(i64 4, ptr %8) #6
  %10 = load i32, ptr %5, align 4
  %11 = icmp sle i32 %10, 0
  br i1 %11, label %12, label %13

12:                                               ; preds = %3
  store i32 -1, ptr %4, align 4
  store i32 1, ptr %9, align 4
  br label %82

13:                                               ; preds = %3
  %14 = load ptr, ptr %6, align 8
  %15 = load i32, ptr %5, align 4
  %16 = sub i32 %15, 1
  %17 = sext i32 %16 to i64
  %18 = getelementptr inbounds i32, ptr %14, i64 %17
  %19 = load i32, ptr %18, align 4
  %20 = add i32 %19, 1
  %21 = load ptr, ptr %7, align 8
  %22 = load i32, ptr %5, align 4
  %23 = sub i32 %22, 1
  %24 = sext i32 %23 to i64
  %25 = getelementptr inbounds i32, ptr %21, i64 %24
  %26 = load i32, ptr %25, align 4
  %27 = srem i32 %20, %26
  %28 = load ptr, ptr %6, align 8
  %29 = load i32, ptr %5, align 4
  %30 = sub i32 %29, 1
  %31 = sext i32 %30 to i64
  %32 = getelementptr inbounds i32, ptr %28, i64 %31
  store i32 %27, ptr %32, align 4
  %33 = load i32, ptr %5, align 4
  %34 = sub i32 %33, 1
  store i32 %34, ptr %8, align 4
  br label %35

35:                                               ; preds = %67, %13
  %36 = load i32, ptr %8, align 4
  %37 = icmp ne i32 %36, 0
  br i1 %37, label %38, label %45

38:                                               ; preds = %35
  %39 = load ptr, ptr %6, align 8
  %40 = load i32, ptr %8, align 4
  %41 = sext i32 %40 to i64
  %42 = getelementptr inbounds i32, ptr %39, i64 %41
  %43 = load i32, ptr %42, align 4
  %44 = icmp eq i32 %43, 0
  br label %45

45:                                               ; preds = %38, %35
  %46 = phi i1 [ false, %35 ], [ %44, %38 ]
  br i1 %46, label %47, label %70

47:                                               ; preds = %45
  %48 = load ptr, ptr %6, align 8
  %49 = load i32, ptr %8, align 4
  %50 = sub i32 %49, 1
  %51 = sext i32 %50 to i64
  %52 = getelementptr inbounds i32, ptr %48, i64 %51
  %53 = load i32, ptr %52, align 4
  %54 = add i32 %53, 1
  %55 = load ptr, ptr %7, align 8
  %56 = load i32, ptr %8, align 4
  %57 = sub i32 %56, 1
  %58 = sext i32 %57 to i64
  %59 = getelementptr inbounds i32, ptr %55, i64 %58
  %60 = load i32, ptr %59, align 4
  %61 = srem i32 %54, %60
  %62 = load ptr, ptr %6, align 8
  %63 = load i32, ptr %8, align 4
  %64 = sub i32 %63, 1
  %65 = sext i32 %64 to i64
  %66 = getelementptr inbounds i32, ptr %62, i64 %65
  store i32 %61, ptr %66, align 4
  br label %67

67:                                               ; preds = %47
  %68 = load i32, ptr %8, align 4
  %69 = add i32 %68, -1
  store i32 %69, ptr %8, align 4
  br label %35, !llvm.loop !12

70:                                               ; preds = %45
  %71 = load i32, ptr %8, align 4
  %72 = icmp ne i32 %71, 0
  br i1 %72, label %73, label %75

73:                                               ; preds = %70
  %74 = load i32, ptr %8, align 4
  store i32 %74, ptr %4, align 4
  store i32 1, ptr %9, align 4
  br label %82

75:                                               ; preds = %70
  %76 = load ptr, ptr %6, align 8
  %77 = getelementptr inbounds i32, ptr %76, i64 0
  %78 = load i32, ptr %77, align 4
  %79 = icmp ne i32 %78, 0
  br i1 %79, label %80, label %81

80:                                               ; preds = %75
  store i32 0, ptr %4, align 4
  store i32 1, ptr %9, align 4
  br label %82

81:                                               ; preds = %75
  store i32 -1, ptr %4, align 4
  store i32 1, ptr %9, align 4
  br label %82

82:                                               ; preds = %81, %80, %73, %12
  call void @llvm.lifetime.end.p0(i64 4, ptr %8) #6
  %83 = load i32, ptr %4, align 4
  ret i32 %83
}