; Function Attrs: nofree norecurse nosync nounwind memory(argmem: readwrite) uwtable
define dso_local range(i32 -1, 2147483647) i32 @mda_next_tuple(i32 noundef %0, ptr noundef captures(none) %1, ptr noundef readonly captures(none) %2) local_unnamed_addr #4 {
  %4 = icmp slt i32 %0, 1
  br i1 %4, label %.critedge, label %5

5:                                                ; preds = %3
  %6 = add nsw i32 %0, -1
  %7 = zext nneg i32 %6 to i64
  %8 = getelementptr inbounds nuw i32, ptr %1, i64 %7
  %9 = load i32, ptr %8, align 4
  %10 = add i32 %9, 1
  %11 = getelementptr inbounds nuw i32, ptr %2, i64 %7
  %12 = load i32, ptr %11, align 4
  %13 = srem i32 %10, %12
  store i32 %13, ptr %8, align 4
  %.not26 = icmp eq i32 %6, 0
  br i1 %.not26, label %.critedge24, label %.lr.ph

.lr.ph:                                           ; preds = %5, %16
  %14 = phi i32 [ %24, %16 ], [ %13, %5 ]
  %.027 = phi i32 [ %17, %16 ], [ %6, %5 ]
  %15 = icmp eq i32 %14, 0
  br i1 %15, label %16, label %.critedge

16:                                               ; preds = %.lr.ph
  %17 = add nsw i32 %.027, -1
  %18 = zext nneg i32 %17 to i64
  %19 = getelementptr inbounds nuw i32, ptr %1, i64 %18
  %20 = load i32, ptr %19, align 4
  %21 = add i32 %20, 1
  %22 = getelementptr inbounds nuw i32, ptr %2, i64 %18
  %23 = load i32, ptr %22, align 4
  %24 = srem i32 %21, %23
  store i32 %24, ptr %19, align 4
  %.not = icmp eq i32 %17, 0
  br i1 %.not, label %.critedge24, label %.lr.ph, !llvm.loop !12

.critedge24:                                      ; preds = %16, %5
  %25 = load i32, ptr %1, align 4
  %.not23 = icmp eq i32 %25, 0
  %. = sext i1 %.not23 to i32
  br label %.critedge

.critedge:                                        ; preds = %.lr.ph, %.critedge24, %3
  %.021 = phi i32 [ -1, %3 ], [ %., %.critedge24 ], [ %.027, %.lr.ph ]
  ret i32 %.021
}